; Function Attrs: mustprogress uwtable
define internal fastcc void @_ZL20synchronize_countersb(i1 noundef zeroext %0) unnamed_addr #3 personality ptr @__gxx_personality_v0 {
  %2 = load ptr, ptr @_ZL12g_memory_mux, align 8, !tbaa !14
  %3 = tail call noundef i32 @pthread_mutex_lock(ptr noundef nonnull align 8 dereferenceable(40) %2) #25
  %.not.i.i = icmp eq i32 %3, 0
  br i1 %.not.i.i, label %_ZNSt10lock_guardISt5mutexEC2ERS0_.exit, label %4

4:                                                ; preds = %1
  tail call void @_ZSt20__throw_system_errori(i32 noundef %3) #26
  unreachable

_ZNSt10lock_guardISt5mutexEC2ERS0_.exit:          ; preds = %1
  %5 = tail call align 8 ptr @llvm.threadlocal.address.p0(ptr align 8 @g_memory_thread_alloc_size)
  %6 = load i64, ptr %5, align 8, !tbaa !12
  %7 = load i64, ptr @_ZL19g_memory_alloc_size, align 8, !tbaa !12
  %8 = add nsw i64 %7, %6
  store i64 %8, ptr @_ZL19g_memory_alloc_size, align 8, !tbaa !12
  %9 = tail call align 8 ptr @llvm.threadlocal.address.p0(ptr align 8 @g_memory_thread_alloc_count)
  %10 = load i64, ptr %9, align 8, !tbaa !12
  %11 = load i64, ptr @_ZL20g_memory_alloc_count, align 8, !tbaa !12
  %12 = add nsw i64 %11, %10
  store i64 %12, ptr @_ZL20g_memory_alloc_count, align 8, !tbaa !12
  %13 = load i64, ptr @_ZL22g_memory_max_used_size, align 8, !tbaa !12
  %14 = icmp sgt i64 %8, %13
  br i1 %14, label %15, label %16

15:                                               ; preds = %_ZNSt10lock_guardISt5mutexEC2ERS0_.exit
  store i64 %8, ptr @_ZL22g_memory_max_used_size, align 8, !tbaa !12
  br label %16

16:                                               ; preds = %15, %_ZNSt10lock_guardISt5mutexEC2ERS0_.exit
  %17 = load i64, ptr @_ZL17g_memory_max_size, align 8, !tbaa !12
  %.not = icmp ne i64 %17, 0
  %18 = icmp sgt i64 %8, %17
  %or.cond.not.not18 = and i1 %.not, %18
  %19 = load i64, ptr @_ZL24g_memory_max_alloc_count, align 8, !tbaa !12
  %20 = tail call noundef i32 @pthread_mutex_unlock(ptr noundef nonnull align 8 dereferenceable(40) %2) #25
  store i64 0, ptr %5, align 8, !tbaa !12
  %brmerge.not = and i1 %0, %or.cond.not.not18
  br i1 %brmerge.not, label %21, label %22

21:                                               ; preds = %16
  tail call fastcc void @_ZL19throw_out_of_memoryv()
  unreachable

22:                                               ; preds = %16
  %.not8 = icmp ne i64 %19, 0
  %23 = icmp sgt i64 %12, %19
  %or.cond11.not.not21 = select i1 %.not8, i1 %23, i1 false
  %brmerge14.not = and i1 %0, %or.cond11.not.not21
  br i1 %brmerge14.not, label %24, label %25

24:                                               ; preds = %22
  tail call fastcc void @_ZL27throw_alloc_counts_exceededv()
  unreachable

25:                                               ; preds = %22
  ret void
}